; Function Attrs: mustprogress uwtable
define noundef zeroext i1 @_ZN7rocksdb13InternalStats14HandleSsTablesEPNSt7__cxx1112basic_stringIcSt11char_traitsIcESaIcEEENS_5SliceE(ptr nocapture noundef nonnull readonly align 8 dereferenceable(1944) %this, ptr noundef %value, ptr nocapture readnone %.coerce0, i64 %.coerce1) #4 align 2 {
entry:
  %ref.tmp = alloca %"class.std::__cxx11::basic_string", align 8
  %cfd_ = getelementptr inbounds i8, ptr %this, i64 1928
  %0 = load ptr, ptr %cfd_, align 8
  %current_.i = getelementptr inbounds i8, ptr %0, i64 48
  %1 = load ptr, ptr %current_.i, align 8
  call void @_ZNK7rocksdb7Version11DebugStringB5cxx11Ebb(ptr nonnull sret(%"class.std::__cxx11::basic_string") align 8 %ref.tmp, ptr noundef nonnull align 16 dereferenceable(4953) %1, i1 noundef zeroext true, i1 noundef zeroext true)
  %call2 = call noundef nonnull align 8 dereferenceable(32) ptr @_ZNSt7__cxx1112basic_stringIcSt11char_traitsIcESaIcEEaSEOS4_(ptr noundef nonnull align 8 dereferenceable(32) %value, ptr noundef nonnull align 8 dereferenceable(32) %ref.tmp) #28
  call void @_ZNSt7__cxx1112basic_stringIcSt11char_traitsIcESaIcEED1Ev(ptr noundef nonnull align 8 dereferenceable(32) %ref.tmp) #28
  ret i1 true
}